target datalayout = "e-m:e-p270:32:32-p271:32:32-p272:64:64-i64:64-i128:128-f80:128-n8:16:32:64-S128"
target triple = "x86_64-pc-linux-gnu"

%struct.avifCodecConfigurationBox = type { i8, i8, i8, i8, i8, i8, i8, i8, i8 }
%struct.avifImage = type { i32, i32, i32, i32, i32, i32, [3 x ptr], [3 x i32], i32, ptr, i32, i32, i32, %struct.avifRWData, i16, i16, i16, %struct.avifContentLightLevelInformationBox, i32, %struct.avifPixelAspectRatioBox, %struct.avifCleanApertureBox, %struct.avifImageRotation, %struct.avifImageMirror, %struct.avifRWData, %struct.avifRWData }
%struct.avifContentLightLevelInformationBox = type { i16, i16 }
%struct.avifPixelAspectRatioBox = type { i32, i32 }
%struct.avifCleanApertureBox = type { i32, i32, i32, i32, i32, i32, i32, i32 }
%struct.avifImageRotation = type { i8 }
%struct.avifImageMirror = type { i8 }
%struct.avifRWData = type { ptr, i64 }
%struct.avifPropertyArray = type { ptr, i32, i32, i32 }
%struct.avifProperty = type { [4 x i8], %union.anon }
%union.anon = type { %struct.avifColourInformationBox, [24 x i8] }
%struct.avifColourInformationBox = type { i32, i64, i64, i32, i16, i16, i16, i32 }

@.str.62 = private unnamed_addr constant [5 x i8] c"av1C\00", align 1

; Function Attrs: nounwind uwtable
define internal i32 @avifCodecConfigurationBoxGetDepth(ptr noundef %0) #0 {
  %2 = alloca i32, align 4
  %3 = alloca ptr, align 8
  store ptr %0, ptr %3, align 8
  %4 = load ptr, ptr %3, align 8
  %5 = getelementptr inbounds nuw %struct.avifCodecConfigurationBox, ptr %4, i32 0, i32 4
  %6 = load i8, ptr %5, align 1
  %7 = icmp ne i8 %6, 0
  br i1 %7, label %8, label %9

8:                                                ; preds = %1
  store i32 12, ptr %2, align 4
  br label %17

9:                                                ; preds = %1
  %10 = load ptr, ptr %3, align 8
  %11 = getelementptr inbounds nuw %struct.avifCodecConfigurationBox, ptr %10, i32 0, i32 3
  %12 = load i8, ptr %11, align 1
  %13 = icmp ne i8 %12, 0
  br i1 %13, label %14, label %15

14:                                               ; preds = %9
  store i32 10, ptr %2, align 4
  br label %17

15:                                               ; preds = %9
  br label %16

16:                                               ; preds = %15
  store i32 8, ptr %2, align 4
  br label %17

17:                                               ; preds = %16, %14, %8
  %18 = load i32, ptr %2, align 4
  ret i32 %18
}

; Function Attrs: nounwind uwtable
define internal ptr @avifPropertyArrayFind(ptr noundef %0, ptr noundef %1) #0 {
  %3 = alloca ptr, align 8
  %4 = alloca ptr, align 8
  %5 = alloca ptr, align 8
  %6 = alloca i32, align 4
  %7 = alloca ptr, align 8
  store ptr %0, ptr %4, align 8
  store ptr %1, ptr %5, align 8
  store i32 0, ptr %6, align 4
  br label %8

8:                                                ; preds = %30, %2
  %9 = load i32, ptr %6, align 4
  %10 = load ptr, ptr %4, align 8
  %11 = getelementptr inbounds nuw %struct.avifPropertyArray, ptr %10, i32 0, i32 2
  %12 = load i32, ptr %11, align 4
  %13 = icmp ult i32 %9, %12
  br i1 %13, label %14, label %33

14:                                               ; preds = %8
  %15 = load ptr, ptr %4, align 8
  %16 = getelementptr inbounds nuw %struct.avifPropertyArray, ptr %15, i32 0, i32 0
  %17 = load ptr, ptr %16, align 8
  %18 = load i32, ptr %6, align 4
  %19 = zext i32 %18 to i64
  %20 = getelementptr inbounds %struct.avifProperty, ptr %17, i64 %19
  store ptr %20, ptr %7, align 8
  %21 = load ptr, ptr %7, align 8
  %22 = getelementptr inbounds nuw %struct.avifProperty, ptr %21, i32 0, i32 0
  %23 = getelementptr inbounds [4 x i8], ptr %22, i64 0, i64 0
  %24 = load ptr, ptr %5, align 8
  %25 = call i32 @memcmp(ptr noundef %23, ptr noundef %24, i64 noundef 4) #6
  %26 = icmp ne i32 %25, 0
  br i1 %26, label %29, label %27

27:                                               ; preds = %14
  %28 = load ptr, ptr %7, align 8
  store ptr %28, ptr %3, align 8
  br label %34

29:                                               ; preds = %14
  br label %30

30:                                               ; preds = %29
  %31 = load i32, ptr %6, align 4
  %32 = add i32 %31, 1
  store i32 %32, ptr %6, align 4
  br label %8, !llvm.loop !22

33:                                               ; preds = %8
  store ptr null, ptr %3, align 8
  br label %34

34:                                               ; preds = %33, %27
  %35 = load ptr, ptr %3, align 8
  ret ptr %35
}

; Function Attrs: nounwind uwtable
define internal ptr @avifGetConfigurationPropertyName(i32 noundef %0) #0 {
  %2 = alloca ptr, align 8
  %3 = alloca i32, align 4
  store i32 %0, ptr %3, align 4
  %4 = load i32, ptr %3, align 4
  switch i32 %4, label %6 [
    i32 1, label %5
  ]

5:                                                ; preds = %1
  store ptr @.str.62, ptr %2, align 8
  br label %7

6:                                                ; preds = %1
  store ptr null, ptr %2, align 8
  br label %7

7:                                                ; preds = %6, %5
  %8 = load ptr, ptr %2, align 8
  ret ptr %8
}

; Function Attrs: nounwind uwtable
define internal i32 @avifReadCodecConfigProperty(ptr noundef %0, ptr noundef %1, i32 noundef %2) #0 {
  %4 = alloca i32, align 4
  %5 = alloca ptr, align 8
  %6 = alloca ptr, align 8
  %7 = alloca i32, align 4
  %8 = alloca ptr, align 8
  store ptr %0, ptr %5, align 8
  store ptr %1, ptr %6, align 8
  store i32 %2, ptr %7, align 4
  %9 = load ptr, ptr %6, align 8
  %10 = load i32, ptr %7, align 4
  %11 = call ptr @avifGetConfigurationPropertyName(i32 noundef %10)
  %12 = call ptr @avifPropertyArrayFind(ptr noundef %9, ptr noundef %11)
  store ptr %12, ptr %8, align 8
  %13 = load ptr, ptr %8, align 8
  %14 = icmp ne ptr %13, null
  br i1 %14, label %15, label %68

15:                                               ; preds = %3
  %16 = load ptr, ptr %8, align 8
  %17 = getelementptr inbounds nuw %struct.avifProperty, ptr %16, i32 0, i32 1
  %18 = call i32 @avifCodecConfigurationBoxGetDepth(ptr noundef %17)
  %19 = load ptr, ptr %5, align 8
  %20 = getelementptr inbounds nuw %struct.avifImage, ptr %19, i32 0, i32 2
  store i32 %18, ptr %20, align 8
  %21 = load ptr, ptr %8, align 8
  %22 = getelementptr inbounds nuw %struct.avifProperty, ptr %21, i32 0, i32 1
  %23 = getelementptr inbounds nuw %struct.avifCodecConfigurationBox, ptr %22, i32 0, i32 5
  %24 = load i8, ptr %23, align 1
  %25 = icmp ne i8 %24, 0
  br i1 %25, label %26, label %29

26:                                               ; preds = %15
  %27 = load ptr, ptr %5, align 8
  %28 = getelementptr inbounds nuw %struct.avifImage, ptr %27, i32 0, i32 3
  store i32 4, ptr %28, align 4
  br label %60

29:                                               ; preds = %15
  %30 = load ptr, ptr %8, align 8
  %31 = getelementptr inbounds nuw %struct.avifProperty, ptr %30, i32 0, i32 1
  %32 = getelementptr inbounds nuw %struct.avifCodecConfigurationBox, ptr %31, i32 0, i32 6
  %33 = load i8, ptr %32, align 2
  %34 = zext i8 %33 to i32
  %35 = icmp ne i32 %34, 0
  br i1 %35, label %36, label %46

36:                                               ; preds = %29
  %37 = load ptr, ptr %8, align 8
  %38 = getelementptr inbounds nuw %struct.avifProperty, ptr %37, i32 0, i32 1
  %39 = getelementptr inbounds nuw %struct.avifCodecConfigurationBox, ptr %38, i32 0, i32 7
  %40 = load i8, ptr %39, align 1
  %41 = zext i8 %40 to i32
  %42 = icmp ne i32 %41, 0
  br i1 %42, label %43, label %46

43:                                               ; preds = %36
  %44 = load ptr, ptr %5, align 8
  %45 = getelementptr inbounds nuw %struct.avifImage, ptr %44, i32 0, i32 3
  store i32 3, ptr %45, align 4
  br label %59

46:                                               ; preds = %36, %29
  %47 = load ptr, ptr %8, align 8
  %48 = getelementptr inbounds nuw %struct.avifProperty, ptr %47, i32 0, i32 1
  %49 = getelementptr inbounds nuw %struct.avifCodecConfigurationBox, ptr %48, i32 0, i32 6
  %50 = load i8, ptr %49, align 2
  %51 = icmp ne i8 %50, 0
  br i1 %51, label %52, label %55

52:                                               ; preds = %46
  %53 = load ptr, ptr %5, align 8
  %54 = getelementptr inbounds nuw %struct.avifImage, ptr %53, i32 0, i32 3
  store i32 2, ptr %54, align 4
  br label %58

55:                                               ; preds = %46
  %56 = load ptr, ptr %5, align 8
  %57 = getelementptr inbounds nuw %struct.avifImage, ptr %56, i32 0, i32 3
  store i32 1, ptr %57, align 4
  br label %58

58:                                               ; preds = %55, %52
  br label %59

59:                                               ; preds = %58, %43
  br label %60

60:                                               ; preds = %59, %26
  %61 = load ptr, ptr %8, align 8
  %62 = getelementptr inbounds nuw %struct.avifProperty, ptr %61, i32 0, i32 1
  %63 = getelementptr inbounds nuw %struct.avifCodecConfigurationBox, ptr %62, i32 0, i32 8
  %64 = load i8, ptr %63, align 8
  %65 = zext i8 %64 to i32
  %66 = load ptr, ptr %5, align 8
  %67 = getelementptr inbounds nuw %struct.avifImage, ptr %66, i32 0, i32 5
  store i32 %65, ptr %67, align 4
  br label %69

68:                                               ; preds = %3
  store i32 9, ptr %4, align 4
  br label %70

69:                                               ; preds = %60
  store i32 0, ptr %4, align 4
  br label %70

70:                                               ; preds = %69, %68
  %71 = load i32, ptr %4, align 4
  ret i32 %71
}