; Function Attrs: nofree nounwind memory(read, argmem: readwrite, inaccessiblemem: none) uwtable
define internal fastcc range(i32 0, 10) i32 @avifReadCodecConfigProperty(ptr noundef writeonly captures(none) %0, ptr noundef readonly captures(none) %1, i32 noundef %2) unnamed_addr #6 {
  %cond.i = icmp eq i32 %2, 1
  %.str.62..i = select i1 %cond.i, ptr @.str.62, ptr null
  %4 = getelementptr inbounds nuw i8, ptr %1, i64 12
  %5 = load i32, ptr %4, align 4
  %.not12.i = icmp eq i32 %5, 0
  br i1 %.not12.i, label %avifPropertyArrayFind.exit.thread, label %.lr.ph.i

.lr.ph.i:                                         ; preds = %3
  %6 = load ptr, ptr %1, align 8
  %wide.trip.count.i = zext i32 %5 to i64
  br label %8

7:                                                ; preds = %8
  %indvars.iv.next.i = add nuw nsw i64 %indvars.iv.i, 1
  %exitcond.not.i = icmp eq i64 %indvars.iv.next.i, %wide.trip.count.i
  br i1 %exitcond.not.i, label %avifPropertyArrayFind.exit.thread, label %8, !llvm.loop !12

8:                                                ; preds = %7, %.lr.ph.i
  %indvars.iv.i = phi i64 [ 0, %.lr.ph.i ], [ %indvars.iv.next.i, %7 ]
  %9 = getelementptr inbounds nuw %struct.avifProperty, ptr %6, i64 %indvars.iv.i
  %bcmp.i = tail call i32 @bcmp(ptr noundef nonnull dereferenceable(4) %9, ptr noundef nonnull readonly dereferenceable(4) %.str.62..i, i64 4)
  %.not.i = icmp eq i32 %bcmp.i, 0
  br i1 %.not.i, label %avifPropertyArrayFind.exit, label %7

avifPropertyArrayFind.exit:                       ; preds = %8
  %10 = getelementptr inbounds nuw i8, ptr %9, i64 12
  %11 = load i8, ptr %10, align 1
  %.not.i20 = icmp eq i8 %11, 0
  br i1 %.not.i20, label %12, label %avifCodecConfigurationBoxGetDepth.exit

12:                                               ; preds = %avifPropertyArrayFind.exit
  %13 = getelementptr inbounds nuw i8, ptr %9, i64 11
  %14 = load i8, ptr %13, align 1
  %.not2.i = icmp eq i8 %14, 0
  %..i = select i1 %.not2.i, i32 8, i32 10
  br label %avifCodecConfigurationBoxGetDepth.exit

avifCodecConfigurationBoxGetDepth.exit:           ; preds = %avifPropertyArrayFind.exit, %12
  %.0.i21 = phi i32 [ 12, %avifPropertyArrayFind.exit ], [ %..i, %12 ]
  %15 = getelementptr inbounds nuw i8, ptr %0, i64 8
  store i32 %.0.i21, ptr %15, align 8
  %16 = getelementptr inbounds nuw i8, ptr %9, i64 13
  %17 = load i8, ptr %16, align 1
  %.not16 = icmp eq i8 %17, 0
  br i1 %.not16, label %20, label %18

18:                                               ; preds = %avifCodecConfigurationBoxGetDepth.exit
  %19 = getelementptr inbounds nuw i8, ptr %0, i64 12
  store i32 4, ptr %19, align 4
  br label %31

20:                                               ; preds = %avifCodecConfigurationBoxGetDepth.exit
  %21 = getelementptr inbounds nuw i8, ptr %9, i64 14
  %22 = load i8, ptr %21, align 2
  %.not17 = icmp eq i8 %22, 0
  br i1 %.not17, label %29, label %23

23:                                               ; preds = %20
  %24 = getelementptr inbounds nuw i8, ptr %9, i64 15
  %25 = load i8, ptr %24, align 1
  %.not18 = icmp eq i8 %25, 0
  %26 = getelementptr inbounds nuw i8, ptr %0, i64 12
  br i1 %.not18, label %28, label %27

27:                                               ; preds = %23
  store i32 3, ptr %26, align 4
  br label %31

28:                                               ; preds = %23
  store i32 2, ptr %26, align 4
  br label %31

29:                                               ; preds = %20
  %30 = getelementptr inbounds nuw i8, ptr %0, i64 12
  store i32 1, ptr %30, align 4
  br label %31

31:                                               ; preds = %27, %29, %28, %18
  %32 = getelementptr inbounds nuw i8, ptr %9, i64 16
  %33 = load i8, ptr %32, align 8
  %34 = zext i8 %33 to i32
  %35 = getelementptr inbounds nuw i8, ptr %0, i64 20
  store i32 %34, ptr %35, align 4
  br label %avifPropertyArrayFind.exit.thread

avifPropertyArrayFind.exit.thread:                ; preds = %7, %3, %31
  %.0 = phi i32 [ 0, %31 ], [ 9, %3 ], [ 9, %7 ]
  ret i32 %.0
}